target datalayout = "e-m:e-p270:32:32-p271:32:32-p272:64:64-i64:64-i128:128-f80:128-n8:16:32:64-S128"
target triple = "x86_64-pc-linux-gnu"

%struct.nghttp2_map = type { ptr, ptr, i64, i32, i32 }

; Function Attrs: nounwind uwtable
define dso_local i32 @nghttp2_map_init(ptr noundef %0, ptr noundef %1) #0 {
  %3 = alloca i32, align 4
  %4 = alloca ptr, align 8
  %5 = alloca ptr, align 8
  store ptr %0, ptr %4, align 8
  store ptr %1, ptr %5, align 8
  %6 = load ptr, ptr %5, align 8
  %7 = load ptr, ptr %4, align 8
  %8 = getelementptr inbounds %struct.nghttp2_map, ptr %7, i32 0, i32 1
  store ptr %6, ptr %8, align 8
  %9 = load ptr, ptr %4, align 8
  %10 = getelementptr inbounds %struct.nghttp2_map, ptr %9, i32 0, i32 3
  store i32 256, ptr %10, align 8
  %11 = load ptr, ptr %4, align 8
  %12 = getelementptr inbounds %struct.nghttp2_map, ptr %11, i32 0, i32 4
  store i32 8, ptr %12, align 4
  %13 = load ptr, ptr %5, align 8
  %14 = load ptr, ptr %4, align 8
  %15 = getelementptr inbounds %struct.nghttp2_map, ptr %14, i32 0, i32 3
  %16 = load i32, ptr %15, align 8
  %17 = zext i32 %16 to i64
  %18 = call ptr @nghttp2_mem_calloc(ptr noundef %13, i64 noundef %17, i64 noundef 16)
  %19 = load ptr, ptr %4, align 8
  %20 = getelementptr inbounds %struct.nghttp2_map, ptr %19, i32 0, i32 0
  store ptr %18, ptr %20, align 8
  %21 = load ptr, ptr %4, align 8
  %22 = getelementptr inbounds %struct.nghttp2_map, ptr %21, i32 0, i32 0
  %23 = load ptr, ptr %22, align 8
  %24 = icmp eq ptr %23, null
  br i1 %24, label %25, label %26

25:                                               ; preds = %2
  store i32 -901, ptr %3, align 4
  br label %29

26:                                               ; preds = %2
  %27 = load ptr, ptr %4, align 8
  %28 = getelementptr inbounds %struct.nghttp2_map, ptr %27, i32 0, i32 2
  store i64 0, ptr %28, align 8
  store i32 0, ptr %3, align 4
  br label %29

29:                                               ; preds = %26, %25
  %30 = load i32, ptr %3, align 4
  ret i32 %30
}