; Function Attrs: nounwind uwtable
define dso_local range(i32 -901, 1) i32 @nghttp2_map_init(ptr noundef writeonly captures(none) initializes((0, 16), (24, 32)) %0, ptr noundef %1) local_unnamed_addr #0 {
  %3 = getelementptr inbounds nuw i8, ptr %0, i64 8
  store ptr %1, ptr %3, align 8
  %4 = getelementptr inbounds nuw i8, ptr %0, i64 24
  store i32 256, ptr %4, align 8
  %5 = getelementptr inbounds nuw i8, ptr %0, i64 28
  store i32 8, ptr %5, align 4
  %6 = tail call ptr @nghttp2_mem_calloc(ptr noundef %1, i64 noundef 256, i64 noundef 16) #10
  store ptr %6, ptr %0, align 8
  %7 = icmp eq ptr %6, null
  br i1 %7, label %10, label %8

8:                                                ; preds = %2
  %9 = getelementptr inbounds nuw i8, ptr %0, i64 16
  store i64 0, ptr %9, align 8
  br label %10

10:                                               ; preds = %2, %8
  %.0 = phi i32 [ 0, %8 ], [ -901, %2 ]
  ret i32 %.0
}